target datalayout = "e-m:e-p270:32:32-p271:32:32-p272:64:64-i64:64-i128:128-f80:128-n8:16:32:64-S128"
target triple = "x86_64-unknown-linux-gnu"

%class.StringView = type { ptr, ptr }
%"class.llvh::itanium_demangle::Node" = type <{ ptr, i8, i8, i8, i8, [4 x i8] }>
%"struct.llvh::ItaniumPartialDemangler" = type { ptr, ptr }
%"struct.llvh::itanium_demangle::AbiTagAttr" = type { %"class.llvh::itanium_demangle::Node.base", ptr, %class.StringView }
%"class.llvh::itanium_demangle::Node.base" = type <{ ptr, i8, i8, i8, i8 }>
%"struct.llvh::itanium_demangle::StdQualifiedName" = type { %"class.llvh::itanium_demangle::Node.base", ptr }
%"struct.llvh::itanium_demangle::NestedName" = type { %"class.llvh::itanium_demangle::Node.base", ptr, ptr }
%"struct.llvh::itanium_demangle::LocalName" = type { %"class.llvh::itanium_demangle::Node.base", ptr, ptr }
%"struct.llvh::itanium_demangle::NameWithTemplateArgs" = type { %"class.llvh::itanium_demangle::Node.base", ptr, ptr }
%"class.llvh::itanium_demangle::FunctionEncoding" = type <{ %"class.llvh::itanium_demangle::Node.base", [4 x i8], ptr, ptr, %"class.llvh::itanium_demangle::NodeArray", ptr, i32, i8, [3 x i8] }>
%"class.llvh::itanium_demangle::NodeArray" = type { ptr, i64 }

; Function Attrs: mustprogress nounwind uwtable
define linkonce_odr hidden noundef ptr @_ZNK4llvh16itanium_demangle16FunctionEncoding7getNameEv(ptr noundef nonnull align 8 dereferenceable(64) %this) #0 comdat align 2 {
entry:
  %this.addr = alloca ptr, align 8
  store ptr %this, ptr %this.addr, align 8
  %this1 = load ptr, ptr %this.addr, align 8
  %Name = getelementptr inbounds %"class.llvh::itanium_demangle::FunctionEncoding", ptr %this1, i32 0, i32 3
  %0 = load ptr, ptr %Name, align 8
  ret ptr %0
}

; Function Attrs: mustprogress nounwind uwtable
define linkonce_odr hidden noundef zeroext i8 @_ZNK4llvh16itanium_demangle4Node7getKindEv(ptr noundef nonnull align 8 dereferenceable(12) %this) #0 comdat align 2 {
entry:
  %this.addr = alloca ptr, align 8
  store ptr %this, ptr %this.addr, align 8
  %this1 = load ptr, ptr %this.addr, align 8
  %K = getelementptr inbounds %"class.llvh::itanium_demangle::Node", ptr %this1, i32 0, i32 1
  %0 = load i8, ptr %K, align 8
  ret i8 %0
}

; Function Attrs: mustprogress nounwind uwtable
define hidden noundef zeroext i1 @_ZNK4llvh23ItaniumPartialDemangler12isCtorOrDtorEv(ptr noundef nonnull align 8 dereferenceable(16) %this) #0 align 2 {
entry:
  %retval = alloca i1, align 1
  %this.addr = alloca ptr, align 8
  %N = alloca ptr, align 8
  store ptr %this, ptr %this.addr, align 8
  %this1 = load ptr, ptr %this.addr, align 8
  %RootNode = getelementptr inbounds %"struct.llvh::ItaniumPartialDemangler", ptr %this1, i32 0, i32 0
  %0 = load ptr, ptr %RootNode, align 8
  store ptr %0, ptr %N, align 8
  br label %while.cond

while.cond:                                       ; preds = %sw.epilog, %entry
  %1 = load ptr, ptr %N, align 8
  %tobool = icmp ne ptr %1, null
  br i1 %tobool, label %while.body, label %while.end

while.body:                                       ; preds = %while.cond
  %2 = load ptr, ptr %N, align 8
  %call = call noundef zeroext i8 @_ZNK4llvh16itanium_demangle4Node7getKindEv(ptr noundef nonnull align 8 dereferenceable(12) %2)
  %conv = zext i8 %call to i32
  switch i32 %conv, label %sw.default [
    i32 37, label %sw.bb
    i32 8, label %sw.bb2
    i32 18, label %sw.bb3
    i32 24, label %sw.bb5
    i32 32, label %sw.bb6
    i32 23, label %sw.bb7
    i32 34, label %sw.bb9
  ]

sw.default:                                       ; preds = %while.body
  store i1 false, ptr %retval, align 1
  br label %return

sw.bb:                                            ; preds = %while.body
  store i1 true, ptr %retval, align 1
  br label %return

sw.bb2:                                           ; preds = %while.body
  %3 = load ptr, ptr %N, align 8
  %Base = getelementptr inbounds %"struct.llvh::itanium_demangle::AbiTagAttr", ptr %3, i32 0, i32 1
  %4 = load ptr, ptr %Base, align 8
  store ptr %4, ptr %N, align 8
  br label %sw.epilog

sw.bb3:                                           ; preds = %while.body
  %5 = load ptr, ptr %N, align 8
  %call4 = call noundef ptr @_ZNK4llvh16itanium_demangle16FunctionEncoding7getNameEv(ptr noundef nonnull align 8 dereferenceable(64) %5)
  store ptr %call4, ptr %N, align 8
  br label %sw.epilog

sw.bb5:                                           ; preds = %while.body
  %6 = load ptr, ptr %N, align 8
  %Entity = getelementptr inbounds %"struct.llvh::itanium_demangle::LocalName", ptr %6, i32 0, i32 2
  %7 = load ptr, ptr %Entity, align 8
  store ptr %7, ptr %N, align 8
  br label %sw.epilog

sw.bb6:                                           ; preds = %while.body
  %8 = load ptr, ptr %N, align 8
  %Name = getelementptr inbounds %"struct.llvh::itanium_demangle::NameWithTemplateArgs", ptr %8, i32 0, i32 1
  %9 = load ptr, ptr %Name, align 8
  store ptr %9, ptr %N, align 8
  br label %sw.epilog

sw.bb7:                                           ; preds = %while.body
  %10 = load ptr, ptr %N, align 8
  %Name8 = getelementptr inbounds %"struct.llvh::itanium_demangle::NestedName", ptr %10, i32 0, i32 2
  %11 = load ptr, ptr %Name8, align 8
  store ptr %11, ptr %N, align 8
  br label %sw.epilog

sw.bb9:                                           ; preds = %while.body
  %12 = load ptr, ptr %N, align 8
  %Child = getelementptr inbounds %"struct.llvh::itanium_demangle::StdQualifiedName", ptr %12, i32 0, i32 1
  %13 = load ptr, ptr %Child, align 8
  store ptr %13, ptr %N, align 8
  br label %sw.epilog

sw.epilog:                                        ; preds = %sw.bb9, %sw.bb7, %sw.bb6, %sw.bb5, %sw.bb3, %sw.bb2
  br label %while.cond, !llvm.loop !10

while.end:                                        ; preds = %while.cond
  store i1 false, ptr %retval, align 1
  br label %return

return:                                           ; preds = %while.end, %sw.bb, %sw.default
  %14 = load i1, ptr %retval, align 1
  ret i1 %14
}