; Function Attrs: mustprogress nofree norecurse nosync nounwind willreturn memory(read, inaccessiblemem: none) uwtable
define hidden noundef zeroext i1 @_ZNK4llvh23ItaniumPartialDemangler12isCtorOrDtorEv(ptr nocapture noundef nonnull readonly align 8 dereferenceable(16) %this) local_unnamed_addr #0 align 2 {
entry:
  %N.08 = load ptr, ptr %this, align 8
  %tobool.not9 = icmp eq ptr %N.08, null
  br i1 %tobool.not9, label %return, label %while.body

while.body:                                       ; preds = %entry, %sw.epilog
  %N.010 = phi ptr [ %N.0, %sw.epilog ], [ %N.08, %entry ]
  %K.i = getelementptr inbounds i8, ptr %N.010, i64 8
  %0 = load i8, ptr %K.i, align 8
  switch i8 %0, label %return.loopexit [
    i8 37, label %return
    i8 8, label %sw.epilog
    i8 18, label %sw.bb3
    i8 24, label %sw.bb5
    i8 32, label %sw.epilog
    i8 23, label %sw.bb7
    i8 34, label %sw.epilog
  ]

sw.bb3:                                           ; preds = %while.body
  br label %sw.epilog

sw.bb5:                                           ; preds = %while.body
  br label %sw.epilog

sw.bb7:                                           ; preds = %while.body
  br label %sw.epilog

sw.epilog:                                        ; preds = %while.body, %while.body, %while.body, %sw.bb7, %sw.bb5, %sw.bb3
  %.sink = phi i64 [ 24, %sw.bb7 ], [ 24, %sw.bb5 ], [ 24, %sw.bb3 ], [ 16, %while.body ], [ 16, %while.body ], [ 16, %while.body ]
  %Child = getelementptr inbounds i8, ptr %N.010, i64 %.sink
  %N.0 = load ptr, ptr %Child, align 8
  %tobool.not = icmp eq ptr %N.0, null
  br i1 %tobool.not, label %return.loopexit, label %while.body, !llvm.loop !12

return.loopexit:                                  ; preds = %sw.epilog, %while.body
  br label %return

return:                                           ; preds = %while.body, %return.loopexit, %entry
  %retval.0 = phi i1 [ false, %entry ], [ false, %return.loopexit ], [ true, %while.body ]
  ret i1 %retval.0
}